Certificate:
    Data:
        Version: 3 (0x2)
        Serial Number: 10848086514453820776 (0x968c253592b9b568)
    Signature Algorithm: sha1WithRSAEncryption
        Issuer: C=PT, O=Universidade do Porto, OU=DCC FCUP, CN=Root CA Cripto 2223
        Validity
            Not Before: Dec  1 11:23:47 2022 GMT
            Not After : Nov 30 11:23:47 2025 GMT
        Subject: C=PT, O=Universidade do Porto, OU=DCC FCUP, CN=Root CA Cripto 2223
        Subject Public Key Info:
            Public Key Algorithm: rsaEncryption
                Public-Key: (2048 bit)
                Modulus:
                    00:c7:4e:1f:06:33:68:c0:7c:29:47:d1:06:c2:3c:
                    98:29:14:94:88:6c:e8:da:b9:79:19:b3:e7:84:58:
                    52:da:e7:99:37:90:bc:6b:a3:dc:02:3e:63:15:d6:
                    fa:2e:1f:fe:58:d7:e5:45:f3:8e:75:11:1a:52:0d:
                    f8:ba:d9:83:b7:e4:b9:39:c8:4a:53:20:48:55:91:
                    2c:f3:6b:c9:ff:c2:cf:20:e5:35:f0:d8:f7:5a:f1:
                    a0:99:3c:83:47:57:d8:a3:49:22:eb:c5:a3:ad:3e:
                    23:43:2c:4e:ae:42:b1:cd:93:6b:1c:a8:4e:ff:c3:
                    0f:00:70:9a:31:18:a0:31:31:ef:01:b0:ce:f3:c0:
                    e4:56:cc:13:be:02:e4:43:a2:5b:7a:5a:e9:1a:5f:
                    d6:c5:b6:c6:bc:b6:9e:71:27:36:3d:4a:74:69:77:
                    aa:9a:4d:50:c0:5e:6b:89:a4:c2:ec:9a:fb:51:8f:
                    9a:7f:1b:aa:6d:cd:eb:d4:9d:9c:88:e4:92:f1:24:
                    a3:fe:62:db:1a:b4:55:b2:4d:14:23:e4:c8:d8:4b:
                    cb:21:fe:d5:73:0f:b5:df:56:b4:c3:29:6d:25:97:
                    28:88:d2:66:bb:b2:fa:7a:4b:bd:59:aa:c1:4c:19:
                    20:0b:c7:68:e9:14:28:9f:34:48:26:75:84:3b:b2:
                    a9:8b
                Exponent: 65537 (0x10001)
        X509v3 extensions:
            X509v3 Subject Key Identifier: 
                D3:26:55:EF:B4:DD:D8:E2:E3:E2:26:5D:C7:81:01:8F:48:2D:6E:EE
            X509v3 Authority Key Identifier: 
                keyid:D3:26:55:EF:B4:DD:D8:E2:E3:E2:26:5D:C7:81:01:8F:48:2D:6E:EE
                DirName:/C=PT/O=Universidade do Porto/OU=DCC FCUP/CN=Root CA Cripto 2223
                serial:96:8C:25:35:92:B9:B5:68

            X509v3 Basic Constraints: 
                CA:TRUE
            X509v3 Subject Alternative Name: 
                email:mbb@fc.up.pt
    Signature Algorithm: sha1WithRSAEncryption
         c5:6d:03:45:0f:be:3d:34:28:fc:11:68:1c:cb:2a:7a:2c:07:
         4b:74:22:b1:1c:bf:44:b3:b9:61:6b:fa:08:f9:3f:58:3d:47:
         2a:21:1e:44:72:2d:89:67:21:ac:ed:87:af:f2:b0:59:37:53:
         33:aa:de:00:ee:6f:29:7c:da:ca:ec:df:3c:27:a0:64:5e:a1:
         f8:7c:c3:7c:cd:5b:7b:97:ec:42:8c:59:ca:7c:88:d2:f5:d1:
         a4:23:df:82:af:a7:39:7e:75:14:c7:51:d2:43:19:4f:76:60:
         0f:5a:18:85:32:d1:f7:40:62:4b:eb:75:3f:71:75:fa:3d:c8:
         57:70:ac:15:b4:64:6e:cf:c1:69:61:63:50:4c:9c:98:67:4a:
         83:d6:74:eb:a5:21:f9:7c:a8:15:c4:76:5d:48:ec:10:a5:ab:
         6c:74:99:6e:2b:6e:54:e5:5d:3f:43:e8:07:2e:27:b7:1d:5e:
         b4:01:a6:0a:54:dc:7f:28:98:04:19:6b:7f:ff:5c:eb:6c:5e:
         32:ea:2f:7d:ca:da:05:51:97:02:07:c5:bf:14:6f:6b:3c:c3:
         94:0e:bc:df:5d:2e:18:c5:89:46:58:3c:0d:33:93:0d:16:24:
         cd:99:10:ee:69:a8:6a:22:0c:c2:b6:0c:e3:25:b5:40:1b:05:
         30:ef:60:9d
-----BEGIN CERTIFICATE-----
MIIEHDCCAwSgAwIBAgIJAJaMJTWSubVoMA0GCSqGSIb3DQEBBQUAMF4xCzAJBgNV
BAYTAlBUMR4wHAYDVQQKExVVbml2ZXJzaWRhZGUgZG8gUG9ydG8xETAPBgNVBAsT
CERDQyBGQ1VQMRwwGgYDVQQDExNSb290IENBIENyaXB0byAyMjIzMB4XDTIyMTIw
MTExMjM0N1oXDTI1MTEzMDExMjM0N1owXjELMAkGA1UEBhMCUFQxHjAcBgNVBAoT
FVVuaXZlcnNpZGFkZSBkbyBQb3J0bzERMA8GA1UECxMIRENDIEZDVVAxHDAaBgNV
BAMTE1Jvb3QgQ0EgQ3JpcHRvIDIyMjMwggEiMA0GCSqGSIb3DQEBAQUAA4IBDwAw
ggEKAoIBAQDHTh8GM2jAfClH0QbCPJgpFJSIbOjauXkZs+eEWFLa55k3kLxro9wC
PmMV1vouH/5Y1+VF8451ERpSDfi62YO35Lk5yEpTIEhVkSzza8n/ws8g5TXw2Pda
8aCZPINHV9ijSSLrxaOtPiNDLE6uQrHNk2scqE7/ww8AcJoxGKAxMe8BsM7zwORW
zBO+AuRDolt6WukaX9bFtsa8tp5xJzY9SnRpd6qaTVDAXmuJpMLsmvtRj5p/G6pt
zevUnZyI5JLxJKP+YtsatFWyTRQj5MjYS8sh/tVzD7XfVrTDKW0llyiI0ma7svp6
S71ZqsFMGSALx2jpFCifNEgmdYQ7sqmLAgMBAAGjgdwwgdkwHQYDVR0OBBYEFNMm
Ve+03dji4+ImXceBAY9ILW7uMIGQBgNVHSMEgYgwgYWAFNMmVe+03dji4+ImXceB
AY9ILW7uoWKkYDBeMQswCQYDVQQGEwJQVDEeMBwGA1UEChMVVW5pdmVyc2lkYWRl
IGRvIFBvcnRvMREwDwYDVQQLEwhEQ0MgRkNVUDEcMBoGA1UEAxMTUm9vdCBDQSBD
cmlwdG8gMjIyM4IJAJaMJTWSubVoMAwGA1UdEwQFMAMBAf8wFwYDVR0RBBAwDoEM
bWJiQGZjLnVwLnB0MA0GCSqGSIb3DQEBBQUAA4IBAQDFbQNFD749NCj8EWgcyyp6
LAdLdCKxHL9Es7lha/oI+T9YPUcqIR5Eci2JZyGs7Yev8rBZN1Mzqt4A7m8pfNrK
7N88J6BkXqH4fMN8zVt7l+xCjFnKfIjS9dGkI9+Cr6c5fnUUx1HSQxlPdmAPWhiF
MtH3QGJL63U/cXX6PchXcKwVtGRuz8FpYWNQTJyYZ0qD1nTrpSH5fKgVxHZdSOwQ
patsdJluK25U5V0/Q+gHLie3HV60AaYKVNx/KJgEGWt//1zrbF4y6i99ytoFUZcC
B8W/FG9rPMOUDrzfXS4YxYlGWDwNM5MNFiTNmRDuaahqIgzCtgzjJbVAGwUw72Cd
-----END CERTIFICATE-----
